target datalayout = "e-m:e-p270:32:32-p271:32:32-p272:64:64-i64:64-i128:128-f80:128-n8:16:32:64-S128"
target triple = "x86_64-pc-linux-gnu"

%struct.bb_state = type { %struct.bb_config, ptr, ptr, ptr, %union.pthread_mutex_t, i64, i64, ptr, i64, i64, i64, ptr, %union.pthread_cond_t, i8, %union.pthread_mutex_t, i64, i32, i32, i64, i64 }
%struct.bb_config = type { ptr, ptr, ptr, ptr, ptr, ptr, ptr, ptr, i32, ptr, ptr, i64, i32, ptr, i32, i32, i32, i32, ptr, ptr, ptr, ptr, i32 }
%union.pthread_cond_t = type { %struct.__pthread_cond_s }
%struct.__pthread_cond_s = type { %union.__atomic_wide_counter, %union.__atomic_wide_counter, [2 x i32], [2 x i32], i32, i32, [2 x i32] }
%union.__atomic_wide_counter = type { i64 }
%union.pthread_mutex_t = type { %struct.__pthread_mutex_s }
%struct.__pthread_mutex_s = type { i32, i32, i32, i32, i32, i16, i16, %struct.__pthread_internal_list }
%struct.__pthread_internal_list = type { ptr, ptr }
%struct.bb_alloc = type { ptr, ptr, ptr, i32, i32, i8, i64, i64, i32, i32, i32, i32, ptr, ptr, i8, ptr, ptr, ptr, ptr, i64, i64, i16, i64, i64, i32 }
%struct.bb_job = type { ptr, i32, ptr, i32, ptr, i32, i32, ptr, i8, ptr, ptr, i64, ptr, i32, i64, i32, i32, i32, i64, i8, i32 }
%struct.bb_user = type { i32, ptr, i64, i32 }
%struct.bb_buf_t = type { ptr, i32, i8, i8, i8, ptr, ptr, i64, i16, ptr, i8 }

; Function Attrs: nounwind uwtable
define internal void @_bb_job_del2(ptr noundef %0) #0 {
  %2 = alloca ptr, align 8
  %3 = alloca i32, align 4
  store ptr %0, ptr %2, align 8
  call void @llvm.lifetime.start.p0(i64 4, ptr %3) #9
  %4 = load ptr, ptr %2, align 8
  %5 = icmp ne ptr %4, null
  br i1 %5, label %6, label %68

6:                                                ; preds = %1
  %7 = load ptr, ptr %2, align 8
  %8 = getelementptr inbounds nuw %struct.bb_job, ptr %7, i32 0, i32 6
  %9 = load i32, ptr %8, align 4
  %10 = icmp ne i32 %9, -1
  br i1 %10, label %11, label %16

11:                                               ; preds = %6
  %12 = load ptr, ptr %2, align 8
  %13 = getelementptr inbounds nuw %struct.bb_job, ptr %12, i32 0, i32 6
  %14 = load i32, ptr %13, align 4
  %15 = call i32 @close(i32 noundef %14)
  br label %16

16:                                               ; preds = %11, %6
  %17 = load ptr, ptr %2, align 8
  %18 = getelementptr inbounds nuw %struct.bb_job, ptr %17, i32 0, i32 0
  call void @slurm_xfree(ptr noundef %18)
  store i32 0, ptr %3, align 4
  br label %19

19:                                               ; preds = %54, %16
  %20 = load i32, ptr %3, align 4
  %21 = load ptr, ptr %2, align 8
  %22 = getelementptr inbounds nuw %struct.bb_job, ptr %21, i32 0, i32 1
  %23 = load i32, ptr %22, align 8
  %24 = icmp ult i32 %20, %23
  br i1 %24, label %25, label %57

25:                                               ; preds = %19
  %26 = load ptr, ptr %2, align 8
  %27 = getelementptr inbounds nuw %struct.bb_job, ptr %26, i32 0, i32 2
  %28 = load ptr, ptr %27, align 8
  %29 = load i32, ptr %3, align 4
  %30 = sext i32 %29 to i64
  %31 = getelementptr inbounds %struct.bb_buf_t, ptr %28, i64 %30
  %32 = getelementptr inbounds nuw %struct.bb_buf_t, ptr %31, i32 0, i32 0
  call void @slurm_xfree(ptr noundef %32)
  %33 = load ptr, ptr %2, align 8
  %34 = getelementptr inbounds nuw %struct.bb_job, ptr %33, i32 0, i32 2
  %35 = load ptr, ptr %34, align 8
  %36 = load i32, ptr %3, align 4
  %37 = sext i32 %36 to i64
  %38 = getelementptr inbounds %struct.bb_buf_t, ptr %35, i64 %37
  %39 = getelementptr inbounds nuw %struct.bb_buf_t, ptr %38, i32 0, i32 5
  call void @slurm_xfree(ptr noundef %39)
  %40 = load ptr, ptr %2, align 8
  %41 = getelementptr inbounds nuw %struct.bb_job, ptr %40, i32 0, i32 2
  %42 = load ptr, ptr %41, align 8
  %43 = load i32, ptr %3, align 4
  %44 = sext i32 %43 to i64
  %45 = getelementptr inbounds %struct.bb_buf_t, ptr %42, i64 %44
  %46 = getelementptr inbounds nuw %struct.bb_buf_t, ptr %45, i32 0, i32 6
  call void @slurm_xfree(ptr noundef %46)
  %47 = load ptr, ptr %2, align 8
  %48 = getelementptr inbounds nuw %struct.bb_job, ptr %47, i32 0, i32 2
  %49 = load ptr, ptr %48, align 8
  %50 = load i32, ptr %3, align 4
  %51 = sext i32 %50 to i64
  %52 = getelementptr inbounds %struct.bb_buf_t, ptr %49, i64 %51
  %53 = getelementptr inbounds nuw %struct.bb_buf_t, ptr %52, i32 0, i32 9
  call void @slurm_xfree(ptr noundef %53)
  br label %54

54:                                               ; preds = %25
  %55 = load i32, ptr %3, align 4
  %56 = add nsw i32 %55, 1
  store i32 %56, ptr %3, align 4
  br label %19, !llvm.loop !16

57:                                               ; preds = %19
  %58 = load ptr, ptr %2, align 8
  %59 = getelementptr inbounds nuw %struct.bb_job, ptr %58, i32 0, i32 2
  call void @slurm_xfree(ptr noundef %59)
  %60 = load ptr, ptr %2, align 8
  %61 = getelementptr inbounds nuw %struct.bb_job, ptr %60, i32 0, i32 4
  call void @slurm_xfree(ptr noundef %61)
  %62 = load ptr, ptr %2, align 8
  %63 = getelementptr inbounds nuw %struct.bb_job, ptr %62, i32 0, i32 7
  call void @slurm_xfree(ptr noundef %63)
  %64 = load ptr, ptr %2, align 8
  %65 = getelementptr inbounds nuw %struct.bb_job, ptr %64, i32 0, i32 10
  call void @slurm_xfree(ptr noundef %65)
  %66 = load ptr, ptr %2, align 8
  %67 = getelementptr inbounds nuw %struct.bb_job, ptr %66, i32 0, i32 12
  call void @slurm_xfree(ptr noundef %67)
  call void @slurm_xfree(ptr noundef %2)
  br label %68

68:                                               ; preds = %57, %1
  call void @llvm.lifetime.end.p0(i64 4, ptr %3) #9
  ret void
}

; Function Attrs: nounwind uwtable
define dso_local void @bb_free_alloc_buf(ptr noundef %0) #0 {
  %2 = alloca ptr, align 8
  store ptr %0, ptr %2, align 8
  %3 = load ptr, ptr %2, align 8
  %4 = icmp ne ptr %3, null
  br i1 %4, label %5, label %20

5:                                                ; preds = %1
  %6 = load ptr, ptr %2, align 8
  %7 = getelementptr inbounds nuw %struct.bb_alloc, ptr %6, i32 0, i32 11
  store i32 0, ptr %7, align 4
  %8 = load ptr, ptr %2, align 8
  %9 = getelementptr inbounds nuw %struct.bb_alloc, ptr %8, i32 0, i32 0
  call void @slurm_xfree(ptr noundef %9)
  %10 = load ptr, ptr %2, align 8
  %11 = getelementptr inbounds nuw %struct.bb_alloc, ptr %10, i32 0, i32 2
  call void @slurm_xfree(ptr noundef %11)
  %12 = load ptr, ptr %2, align 8
  %13 = getelementptr inbounds nuw %struct.bb_alloc, ptr %12, i32 0, i32 12
  call void @slurm_xfree(ptr noundef %13)
  %14 = load ptr, ptr %2, align 8
  %15 = getelementptr inbounds nuw %struct.bb_alloc, ptr %14, i32 0, i32 15
  call void @slurm_xfree(ptr noundef %15)
  %16 = load ptr, ptr %2, align 8
  %17 = getelementptr inbounds nuw %struct.bb_alloc, ptr %16, i32 0, i32 16
  call void @slurm_xfree(ptr noundef %17)
  %18 = load ptr, ptr %2, align 8
  %19 = getelementptr inbounds nuw %struct.bb_alloc, ptr %18, i32 0, i32 17
  call void @slurm_xfree(ptr noundef %19)
  call void @slurm_xfree(ptr noundef %2)
  br label %20

20:                                               ; preds = %5, %1
  ret void
}

; Function Attrs: nounwind uwtable
define dso_local void @bb_clear_cache(ptr noundef %0) #0 {
  %2 = alloca ptr, align 8
  %3 = alloca ptr, align 8
  %4 = alloca ptr, align 8
  %5 = alloca ptr, align 8
  %6 = alloca ptr, align 8
  %7 = alloca ptr, align 8
  %8 = alloca ptr, align 8
  %9 = alloca i32, align 4
  store ptr %0, ptr %2, align 8
  call void @llvm.lifetime.start.p0(i64 8, ptr %3) #9
  call void @llvm.lifetime.start.p0(i64 8, ptr %4) #9
  call void @llvm.lifetime.start.p0(i64 8, ptr %5) #9
  call void @llvm.lifetime.start.p0(i64 8, ptr %6) #9
  call void @llvm.lifetime.start.p0(i64 8, ptr %7) #9
  call void @llvm.lifetime.start.p0(i64 8, ptr %8) #9
  call void @llvm.lifetime.start.p0(i64 4, ptr %9) #9
  %10 = load ptr, ptr %2, align 8
  %11 = getelementptr inbounds nuw %struct.bb_state, ptr %10, i32 0, i32 1
  %12 = load ptr, ptr %11, align 8
  %13 = icmp ne ptr %12, null
  br i1 %13, label %14, label %42

14:                                               ; preds = %1
  store i32 0, ptr %9, align 4
  br label %15

15:                                               ; preds = %36, %14
  %16 = load i32, ptr %9, align 4
  %17 = icmp slt i32 %16, 100
  br i1 %17, label %18, label %39

18:                                               ; preds = %15
  %19 = load ptr, ptr %2, align 8
  %20 = getelementptr inbounds nuw %struct.bb_state, ptr %19, i32 0, i32 1
  %21 = load ptr, ptr %20, align 8
  %22 = load i32, ptr %9, align 4
  %23 = sext i32 %22 to i64
  %24 = getelementptr inbounds ptr, ptr %21, i64 %23
  %25 = load ptr, ptr %24, align 8
  store ptr %25, ptr %3, align 8
  br label %26

26:                                               ; preds = %29, %18
  %27 = load ptr, ptr %3, align 8
  %28 = icmp ne ptr %27, null
  br i1 %28, label %29, label %35

29:                                               ; preds = %26
  %30 = load ptr, ptr %3, align 8
  %31 = getelementptr inbounds nuw %struct.bb_alloc, ptr %30, i32 0, i32 13
  %32 = load ptr, ptr %31, align 8
  store ptr %32, ptr %4, align 8
  %33 = load ptr, ptr %3, align 8
  call void @bb_free_alloc_buf(ptr noundef %33)
  %34 = load ptr, ptr %4, align 8
  store ptr %34, ptr %3, align 8
  br label %26, !llvm.loop !8

35:                                               ; preds = %26
  br label %36

36:                                               ; preds = %35
  %37 = load i32, ptr %9, align 4
  %38 = add nsw i32 %37, 1
  store i32 %38, ptr %9, align 4
  br label %15, !llvm.loop !11

39:                                               ; preds = %15
  %40 = load ptr, ptr %2, align 8
  %41 = getelementptr inbounds nuw %struct.bb_state, ptr %40, i32 0, i32 1
  call void @slurm_xfree(ptr noundef %41)
  br label %42

42:                                               ; preds = %39, %1
  %43 = load ptr, ptr %2, align 8
  %44 = getelementptr inbounds nuw %struct.bb_state, ptr %43, i32 0, i32 2
  %45 = load ptr, ptr %44, align 8
  %46 = icmp ne ptr %45, null
  br i1 %46, label %47, label %75

47:                                               ; preds = %42
  store i32 0, ptr %9, align 4
  br label %48

48:                                               ; preds = %69, %47
  %49 = load i32, ptr %9, align 4
  %50 = icmp slt i32 %49, 100
  br i1 %50, label %51, label %72

51:                                               ; preds = %48
  %52 = load ptr, ptr %2, align 8
  %53 = getelementptr inbounds nuw %struct.bb_state, ptr %52, i32 0, i32 2
  %54 = load ptr, ptr %53, align 8
  %55 = load i32, ptr %9, align 4
  %56 = sext i32 %55 to i64
  %57 = getelementptr inbounds ptr, ptr %54, i64 %56
  %58 = load ptr, ptr %57, align 8
  store ptr %58, ptr %5, align 8
  br label %59

59:                                               ; preds = %62, %51
  %60 = load ptr, ptr %5, align 8
  %61 = icmp ne ptr %60, null
  br i1 %61, label %62, label %68

62:                                               ; preds = %59
  %63 = load ptr, ptr %5, align 8
  %64 = getelementptr inbounds nuw %struct.bb_job, ptr %63, i32 0, i32 9
  %65 = load ptr, ptr %64, align 8
  store ptr %65, ptr %6, align 8
  %66 = load ptr, ptr %5, align 8
  call void @_bb_job_del2(ptr noundef %66)
  %67 = load ptr, ptr %6, align 8
  store ptr %67, ptr %5, align 8
  br label %59, !llvm.loop !12

68:                                               ; preds = %59
  br label %69

69:                                               ; preds = %68
  %70 = load i32, ptr %9, align 4
  %71 = add nsw i32 %70, 1
  store i32 %71, ptr %9, align 4
  br label %48, !llvm.loop !13

72:                                               ; preds = %48
  %73 = load ptr, ptr %2, align 8
  %74 = getelementptr inbounds nuw %struct.bb_state, ptr %73, i32 0, i32 2
  call void @slurm_xfree(ptr noundef %74)
  br label %75

75:                                               ; preds = %72, %42
  %76 = load ptr, ptr %2, align 8
  %77 = getelementptr inbounds nuw %struct.bb_state, ptr %76, i32 0, i32 3
  %78 = load ptr, ptr %77, align 8
  %79 = icmp ne ptr %78, null
  br i1 %79, label %80, label %107

80:                                               ; preds = %75
  store i32 0, ptr %9, align 4
  br label %81

81:                                               ; preds = %101, %80
  %82 = load i32, ptr %9, align 4
  %83 = icmp slt i32 %82, 100
  br i1 %83, label %84, label %104

84:                                               ; preds = %81
  %85 = load ptr, ptr %2, align 8
  %86 = getelementptr inbounds nuw %struct.bb_state, ptr %85, i32 0, i32 3
  %87 = load ptr, ptr %86, align 8
  %88 = load i32, ptr %9, align 4
  %89 = sext i32 %88 to i64
  %90 = getelementptr inbounds ptr, ptr %87, i64 %89
  %91 = load ptr, ptr %90, align 8
  store ptr %91, ptr %7, align 8
  br label %92

92:                                               ; preds = %95, %84
  %93 = load ptr, ptr %7, align 8
  %94 = icmp ne ptr %93, null
  br i1 %94, label %95, label %100

95:                                               ; preds = %92
  %96 = load ptr, ptr %7, align 8
  %97 = getelementptr inbounds nuw %struct.bb_user, ptr %96, i32 0, i32 1
  %98 = load ptr, ptr %97, align 8
  store ptr %98, ptr %8, align 8
  call void @slurm_xfree(ptr noundef %7)
  %99 = load ptr, ptr %8, align 8
  store ptr %99, ptr %7, align 8
  br label %92, !llvm.loop !14

100:                                              ; preds = %92
  br label %101

101:                                              ; preds = %100
  %102 = load i32, ptr %9, align 4
  %103 = add nsw i32 %102, 1
  store i32 %103, ptr %9, align 4
  br label %81, !llvm.loop !15

104:                                              ; preds = %81
  %105 = load ptr, ptr %2, align 8
  %106 = getelementptr inbounds nuw %struct.bb_state, ptr %105, i32 0, i32 3
  call void @slurm_xfree(ptr noundef %106)
  br label %107

107:                                              ; preds = %104, %75
  %108 = load ptr, ptr %2, align 8
  %109 = getelementptr inbounds nuw %struct.bb_state, ptr %108, i32 0, i32 7
  call void @slurm_xfree(ptr noundef %109)
  br label %110

110:                                              ; preds = %107
  %111 = load ptr, ptr %2, align 8
  %112 = getelementptr inbounds nuw %struct.bb_state, ptr %111, i32 0, i32 11
  %113 = load ptr, ptr %112, align 8
  %114 = icmp ne ptr %113, null
  br i1 %114, label %115, label %119

115:                                              ; preds = %110
  %116 = load ptr, ptr %2, align 8
  %117 = getelementptr inbounds nuw %struct.bb_state, ptr %116, i32 0, i32 11
  %118 = load ptr, ptr %117, align 8
  call void @list_destroy(ptr noundef %118)
  br label %119

119:                                              ; preds = %115, %110
  %120 = load ptr, ptr %2, align 8
  %121 = getelementptr inbounds nuw %struct.bb_state, ptr %120, i32 0, i32 11
  store ptr null, ptr %121, align 8
  br label %122

122:                                              ; preds = %119
  br label %123

123:                                              ; preds = %122
  call void @llvm.lifetime.end.p0(i64 4, ptr %9) #9
  call void @llvm.lifetime.end.p0(i64 8, ptr %8) #9
  call void @llvm.lifetime.end.p0(i64 8, ptr %7) #9
  call void @llvm.lifetime.end.p0(i64 8, ptr %6) #9
  call void @llvm.lifetime.end.p0(i64 8, ptr %5) #9
  call void @llvm.lifetime.end.p0(i64 8, ptr %4) #9
  call void @llvm.lifetime.end.p0(i64 8, ptr %3) #9
  ret void
}