; Function Attrs: nounwind uwtable
define dso_local void @bb_clear_cache(ptr noundef %0) local_unnamed_addr #0 {
  %2 = alloca ptr, align 8
  %3 = alloca ptr, align 8
  %4 = alloca ptr, align 8
  call void @llvm.lifetime.start.p0(i64 8, ptr nonnull %4) #17
  %5 = getelementptr inbounds nuw i8, ptr %0, i64 168
  %6 = load ptr, ptr %5, align 8
  %.not = icmp eq ptr %6, null
  br i1 %.not, label %19, label %.preheader42

.preheader42:                                     ; preds = %1, %._crit_edge
  %indvars.iv = phi i64 [ %indvars.iv.next, %._crit_edge ], [ 0, %1 ]
  %7 = load ptr, ptr %5, align 8
  %8 = getelementptr inbounds nuw ptr, ptr %7, i64 %indvars.iv
  %9 = load ptr, ptr %8, align 8
  %.not3943 = icmp eq ptr %9, null
  br i1 %.not3943, label %._crit_edge, label %bb_free_alloc_buf.exit

bb_free_alloc_buf.exit:                           ; preds = %.preheader42, %bb_free_alloc_buf.exit
  %.03044 = phi ptr [ %11, %bb_free_alloc_buf.exit ], [ %9, %.preheader42 ]
  %10 = getelementptr inbounds nuw i8, ptr %.03044, i64 80
  %11 = load ptr, ptr %10, align 8
  call void @llvm.lifetime.start.p0(i64 8, ptr nonnull %3)
  store ptr %.03044, ptr %3, align 8
  %12 = getelementptr inbounds nuw i8, ptr %.03044, i64 68
  store i32 0, ptr %12, align 4
  call void @slurm_xfree(ptr noundef nonnull %.03044) #17
  %13 = getelementptr inbounds nuw i8, ptr %.03044, i64 16
  call void @slurm_xfree(ptr noundef nonnull %13) #17
  %14 = getelementptr inbounds nuw i8, ptr %.03044, i64 72
  call void @slurm_xfree(ptr noundef nonnull %14) #17
  %15 = getelementptr inbounds nuw i8, ptr %.03044, i64 96
  call void @slurm_xfree(ptr noundef nonnull %15) #17
  %16 = getelementptr inbounds nuw i8, ptr %.03044, i64 104
  call void @slurm_xfree(ptr noundef nonnull %16) #17
  %17 = getelementptr inbounds nuw i8, ptr %.03044, i64 112
  call void @slurm_xfree(ptr noundef nonnull %17) #17
  call void @slurm_xfree(ptr noundef nonnull %3) #17
  call void @llvm.lifetime.end.p0(i64 8, ptr nonnull %3)
  %.not39 = icmp eq ptr %11, null
  br i1 %.not39, label %._crit_edge, label %bb_free_alloc_buf.exit, !llvm.loop !8

._crit_edge:                                      ; preds = %bb_free_alloc_buf.exit, %.preheader42
  %indvars.iv.next = add nuw nsw i64 %indvars.iv, 1
  %exitcond.not = icmp eq i64 %indvars.iv.next, 100
  br i1 %exitcond.not, label %18, label %.preheader42, !llvm.loop !11

18:                                               ; preds = %._crit_edge
  call void @slurm_xfree(ptr noundef nonnull %5) #17
  br label %19

19:                                               ; preds = %18, %1
  %20 = getelementptr inbounds nuw i8, ptr %0, i64 176
  %21 = load ptr, ptr %20, align 8
  %.not34 = icmp eq ptr %21, null
  br i1 %.not34, label %53, label %.preheader41

.preheader41:                                     ; preds = %19, %._crit_edge49
  %indvars.iv58 = phi i64 [ %indvars.iv.next59, %._crit_edge49 ], [ 0, %19 ]
  %22 = load ptr, ptr %20, align 8
  %23 = getelementptr inbounds nuw ptr, ptr %22, i64 %indvars.iv58
  %24 = load ptr, ptr %23, align 8
  %.not3846 = icmp eq ptr %24, null
  br i1 %.not3846, label %._crit_edge49, label %.lr.ph

.lr.ph:                                           ; preds = %.preheader41, %_bb_job_del2.exit
  %.03147 = phi ptr [ %26, %_bb_job_del2.exit ], [ %24, %.preheader41 ]
  %25 = getelementptr inbounds nuw i8, ptr %.03147, i64 64
  %26 = load ptr, ptr %25, align 8
  call void @llvm.lifetime.start.p0(i64 8, ptr nonnull %2)
  store ptr %.03147, ptr %2, align 8
  %27 = getelementptr inbounds nuw i8, ptr %.03147, i64 44
  %28 = load i32, ptr %27, align 4
  %.not.i40 = icmp eq i32 %28, -1
  br i1 %.not.i40, label %31, label %29

29:                                               ; preds = %.lr.ph
  %30 = call i32 @close(i32 noundef %28) #17
  br label %31

31:                                               ; preds = %29, %.lr.ph
  call void @slurm_xfree(ptr noundef nonnull %.03147) #17
  %32 = getelementptr inbounds nuw i8, ptr %.03147, i64 8
  %33 = load i32, ptr %32, align 8
  %.not9.i = icmp eq i32 %33, 0
  br i1 %.not9.i, label %_bb_job_del2.exit, label %.lr.ph.i

.lr.ph.i:                                         ; preds = %31
  %34 = getelementptr inbounds nuw i8, ptr %.03147, i64 16
  br label %35

35:                                               ; preds = %35, %.lr.ph.i
  %indvars.iv.i = phi i64 [ 0, %.lr.ph.i ], [ %indvars.iv.next.i, %35 ]
  %36 = load ptr, ptr %34, align 8
  %37 = getelementptr inbounds nuw %struct.bb_buf_t, ptr %36, i64 %indvars.iv.i
  call void @slurm_xfree(ptr noundef %37) #17
  %38 = load ptr, ptr %34, align 8
  %39 = getelementptr inbounds nuw %struct.bb_buf_t, ptr %38, i64 %indvars.iv.i, i32 5
  call void @slurm_xfree(ptr noundef nonnull %39) #17
  %40 = load ptr, ptr %34, align 8
  %41 = getelementptr inbounds nuw %struct.bb_buf_t, ptr %40, i64 %indvars.iv.i, i32 6
  call void @slurm_xfree(ptr noundef nonnull %41) #17
  %42 = load ptr, ptr %34, align 8
  %43 = getelementptr inbounds nuw %struct.bb_buf_t, ptr %42, i64 %indvars.iv.i, i32 9
  call void @slurm_xfree(ptr noundef nonnull %43) #17
  %indvars.iv.next.i = add nuw nsw i64 %indvars.iv.i, 1
  %44 = load i32, ptr %32, align 8
  %45 = zext i32 %44 to i64
  %46 = icmp samesign ult i64 %indvars.iv.next.i, %45
  br i1 %46, label %35, label %_bb_job_del2.exit, !llvm.loop !12

_bb_job_del2.exit:                                ; preds = %35, %31
  %47 = getelementptr inbounds nuw i8, ptr %.03147, i64 16
  call void @slurm_xfree(ptr noundef nonnull %47) #17
  %48 = getelementptr inbounds nuw i8, ptr %.03147, i64 32
  call void @slurm_xfree(ptr noundef nonnull %48) #17
  %49 = getelementptr inbounds nuw i8, ptr %.03147, i64 48
  call void @slurm_xfree(ptr noundef nonnull %49) #17
  %50 = getelementptr inbounds nuw i8, ptr %.03147, i64 72
  call void @slurm_xfree(ptr noundef nonnull %50) #17
  %51 = getelementptr inbounds nuw i8, ptr %.03147, i64 88
  call void @slurm_xfree(ptr noundef nonnull %51) #17
  call void @slurm_xfree(ptr noundef nonnull %2) #17
  call void @llvm.lifetime.end.p0(i64 8, ptr nonnull %2)
  %.not38 = icmp eq ptr %26, null
  br i1 %.not38, label %._crit_edge49, label %.lr.ph, !llvm.loop !13

._crit_edge49:                                    ; preds = %_bb_job_del2.exit, %.preheader41
  %indvars.iv.next59 = add nuw nsw i64 %indvars.iv58, 1
  %exitcond61.not = icmp eq i64 %indvars.iv.next59, 100
  br i1 %exitcond61.not, label %52, label %.preheader41, !llvm.loop !14

52:                                               ; preds = %._crit_edge49
  call void @slurm_xfree(ptr noundef nonnull %20) #17
  br label %53

53:                                               ; preds = %52, %19
  %54 = getelementptr inbounds nuw i8, ptr %0, i64 184
  %55 = load ptr, ptr %54, align 8
  %.not35 = icmp eq ptr %55, null
  br i1 %.not35, label %62, label %.preheader

.preheader:                                       ; preds = %53, %._crit_edge55
  %indvars.iv62 = phi i64 [ %indvars.iv.next63, %._crit_edge55 ], [ 0, %53 ]
  %56 = load ptr, ptr %54, align 8
  %57 = getelementptr inbounds nuw ptr, ptr %56, i64 %indvars.iv62
  %58 = load ptr, ptr %57, align 8
  store ptr %58, ptr %4, align 8
  %.not3751 = icmp eq ptr %58, null
  br i1 %.not3751, label %._crit_edge55, label %.lr.ph54

.lr.ph54:                                         ; preds = %.preheader, %.lr.ph54
  %storemerge52 = phi ptr [ %60, %.lr.ph54 ], [ %58, %.preheader ]
  %59 = getelementptr inbounds nuw i8, ptr %storemerge52, i64 8
  %60 = load ptr, ptr %59, align 8
  call void @slurm_xfree(ptr noundef nonnull %4) #17
  store ptr %60, ptr %4, align 8
  %.not37 = icmp eq ptr %60, null
  br i1 %.not37, label %._crit_edge55, label %.lr.ph54, !llvm.loop !15

._crit_edge55:                                    ; preds = %.lr.ph54, %.preheader
  %indvars.iv.next63 = add nuw nsw i64 %indvars.iv62, 1
  %exitcond65.not = icmp eq i64 %indvars.iv.next63, 100
  br i1 %exitcond65.not, label %61, label %.preheader, !llvm.loop !16

61:                                               ; preds = %._crit_edge55
  call void @slurm_xfree(ptr noundef nonnull %54) #17
  br label %62

62:                                               ; preds = %61, %53
  %63 = getelementptr inbounds nuw i8, ptr %0, i64 248
  call void @slurm_xfree(ptr noundef nonnull %63) #17
  %64 = getelementptr inbounds nuw i8, ptr %0, i64 280
  %65 = load ptr, ptr %64, align 8
  %.not36 = icmp eq ptr %65, null
  br i1 %.not36, label %67, label %66

66:                                               ; preds = %62
  call void @list_destroy(ptr noundef nonnull %65) #17
  br label %67

67:                                               ; preds = %66, %62
  store ptr null, ptr %64, align 8
  call void @llvm.lifetime.end.p0(i64 8, ptr nonnull %4) #17
  ret void
}